target datalayout = "e-m:e-p270:32:32-p271:32:32-p272:64:64-i64:64-i128:128-f80:128-n8:16:32:64-S128"
target triple = "x86_64-pc-linux-gnu"

%class.Handle = type { ptr }

; Function Attrs: mustprogress nounwind uwtable
define linkonce_odr hidden noundef ptr @_ZNK6Handle3objEv(ptr noundef nonnull align 8 dereferenceable(8) %0) #1 comdat align 2 {
  %2 = alloca ptr, align 8
  store ptr %0, ptr %2, align 8
  %3 = load ptr, ptr %2, align 8
  %4 = getelementptr inbounds %class.Handle, ptr %3, i32 0, i32 0
  %5 = load ptr, ptr %4, align 8
  %6 = icmp eq ptr %5, null
  br i1 %6, label %7, label %8

7:                                                ; preds = %1
  br label %12

8:                                                ; preds = %1
  %9 = getelementptr inbounds %class.Handle, ptr %3, i32 0, i32 0
  %10 = load ptr, ptr %9, align 8
  %11 = load ptr, ptr %10, align 8
  br label %12

12:                                               ; preds = %8, %7
  %13 = phi ptr [ null, %7 ], [ %11, %8 ]
  ret ptr %13
}

; Function Attrs: mustprogress nounwind uwtable
define linkonce_odr hidden noundef ptr @_ZNK6HandleclEv(ptr noundef nonnull align 8 dereferenceable(8) %0) #1 comdat align 2 {
  %2 = alloca ptr, align 8
  store ptr %0, ptr %2, align 8
  %3 = load ptr, ptr %2, align 8
  %4 = call noundef ptr @_ZNK6Handle3objEv(ptr noundef nonnull align 8 dereferenceable(8) %3)
  ret ptr %4
}

; Function Attrs: mustprogress nounwind uwtable
define linkonce_odr hidden noundef i32 @_ZN12JvmtiEnvBase8allocateElPPh(ptr noundef nonnull align 8 dereferenceable(460) %0, i64 noundef %1, ptr noundef %2) #1 comdat align 2 {
  %4 = alloca i32, align 4
  %5 = alloca ptr, align 8
  %6 = alloca i64, align 8
  %7 = alloca ptr, align 8
  store ptr %0, ptr %5, align 8
  store i64 %1, ptr %6, align 8
  store ptr %2, ptr %7, align 8
  %8 = load i64, ptr %6, align 8
  %9 = icmp slt i64 %8, 0
  br i1 %9, label %10, label %11

10:                                               ; preds = %3
  store i32 103, ptr %4, align 4
  br label %26

11:                                               ; preds = %3
  %12 = load i64, ptr %6, align 8
  %13 = icmp eq i64 %12, 0
  br i1 %13, label %14, label %16

14:                                               ; preds = %11
  %15 = load ptr, ptr %7, align 8
  store ptr null, ptr %15, align 8
  br label %25

16:                                               ; preds = %11
  %17 = load i64, ptr %6, align 8
  %18 = call noundef ptr @_ZN2os6mallocEm8MEMFLAGS(i64 noundef %17, i8 noundef zeroext 9)
  %19 = load ptr, ptr %7, align 8
  store ptr %18, ptr %19, align 8
  %20 = load ptr, ptr %7, align 8
  %21 = load ptr, ptr %20, align 8
  %22 = icmp eq ptr %21, null
  br i1 %22, label %23, label %24

23:                                               ; preds = %16
  store i32 110, ptr %4, align 4
  br label %26

24:                                               ; preds = %16
  br label %25

25:                                               ; preds = %24, %14
  store i32 0, ptr %4, align 4
  br label %26

26:                                               ; preds = %25, %23, %10
  %27 = load i32, ptr %4, align 4
  ret i32 %27
}

; Function Attrs: mustprogress nounwind uwtable
define hidden noundef ptr @_ZN12JvmtiEnvBase13jni_referenceE6Handle(ptr noundef nonnull align 8 dereferenceable(460) %0, ptr %1) #1 align 2 {
  %3 = alloca %class.Handle, align 8
  %4 = alloca ptr, align 8
  %5 = getelementptr inbounds %class.Handle, ptr %3, i32 0, i32 0
  store ptr %1, ptr %5, align 8
  store ptr %0, ptr %4, align 8
  %6 = call noundef ptr @_ZNK6HandleclEv(ptr noundef nonnull align 8 dereferenceable(8) %3)
  %7 = call noundef ptr @_ZN10JNIHandles10make_localEP7oopDesc(ptr noundef %6)
  ret ptr %7
}

; Function Attrs: mustprogress nounwind uwtable
define hidden noundef ptr @_ZN12JvmtiEnvBase11jvmtiMallocEl(ptr noundef nonnull align 8 dereferenceable(460) %0, i64 noundef %1) #1 align 2 {
  %3 = alloca ptr, align 8
  %4 = alloca i64, align 8
  %5 = alloca ptr, align 8
  %6 = alloca i32, align 4
  store ptr %0, ptr %3, align 8
  store i64 %1, ptr %4, align 8
  %7 = load ptr, ptr %3, align 8
  store ptr null, ptr %5, align 8
  %8 = load i64, ptr %4, align 8
  %9 = call noundef i32 @_ZN12JvmtiEnvBase8allocateElPPh(ptr noundef nonnull align 8 dereferenceable(460) %7, i64 noundef %8, ptr noundef %5)
  store i32 %9, ptr %6, align 4
  %10 = load ptr, ptr %5, align 8
  ret ptr %10
}

; Function Attrs: mustprogress nounwind uwtable
define hidden noundef ptr @_ZN12JvmtiEnvBase16new_jthreadArrayEiP6Handle(ptr noundef nonnull align 8 dereferenceable(460) %0, i32 noundef %1, ptr noundef %2) #1 align 2 {
  %4 = alloca ptr, align 8
  %5 = alloca ptr, align 8
  %6 = alloca i32, align 4
  %7 = alloca ptr, align 8
  %8 = alloca ptr, align 8
  %9 = alloca i32, align 4
  %10 = alloca %class.Handle, align 8
  store ptr %0, ptr %5, align 8
  store i32 %1, ptr %6, align 4
  store ptr %2, ptr %7, align 8
  %11 = load ptr, ptr %5, align 8
  %12 = load i32, ptr %6, align 4
  %13 = icmp eq i32 %12, 0
  br i1 %13, label %14, label %15

14:                                               ; preds = %3
  store ptr null, ptr %4, align 8
  br label %45

15:                                               ; preds = %3
  %16 = load i32, ptr %6, align 4
  %17 = sext i32 %16 to i64
  %18 = mul i64 8, %17
  %19 = call noundef ptr @_ZN12JvmtiEnvBase11jvmtiMallocEl(ptr noundef nonnull align 8 dereferenceable(460) %11, i64 noundef %18)
  store ptr %19, ptr %8, align 8
  %20 = load ptr, ptr %8, align 8
  %21 = icmp eq ptr %20, null
  br i1 %21, label %22, label %23

22:                                               ; preds = %15
  store ptr null, ptr %4, align 8
  br label %45

23:                                               ; preds = %15
  store i32 0, ptr %9, align 4
  br label %24

24:                                               ; preds = %40, %23
  %25 = load i32, ptr %9, align 4
  %26 = load i32, ptr %6, align 4
  %27 = icmp slt i32 %25, %26
  br i1 %27, label %28, label %43

28:                                               ; preds = %24
  %29 = load ptr, ptr %7, align 8
  %30 = load i32, ptr %9, align 4
  %31 = sext i32 %30 to i64
  %32 = getelementptr inbounds %class.Handle, ptr %29, i64 %31
  call void @llvm.memcpy.p0.p0.i64(ptr align 8 %10, ptr align 8 %32, i64 8, i1 false)
  %33 = getelementptr inbounds %class.Handle, ptr %10, i32 0, i32 0
  %34 = load ptr, ptr %33, align 8
  %35 = call noundef ptr @_ZN12JvmtiEnvBase13jni_referenceE6Handle(ptr noundef nonnull align 8 dereferenceable(460) %11, ptr %34)
  %36 = load ptr, ptr %8, align 8
  %37 = load i32, ptr %9, align 4
  %38 = sext i32 %37 to i64
  %39 = getelementptr inbounds ptr, ptr %36, i64 %38
  store ptr %35, ptr %39, align 8
  br label %40

40:                                               ; preds = %28
  %41 = load i32, ptr %9, align 4
  %42 = add nsw i32 %41, 1
  store i32 %42, ptr %9, align 4
  br label %24, !llvm.loop !17

43:                                               ; preds = %24
  %44 = load ptr, ptr %8, align 8
  store ptr %44, ptr %4, align 8
  br label %45

45:                                               ; preds = %43, %22, %14
  %46 = load ptr, ptr %4, align 8
  ret ptr %46
}