; Function Attrs: mustprogress nounwind uwtable
define hidden noundef ptr @_ZN12JvmtiEnvBase16new_jthreadArrayEiP6Handle(ptr nocapture noundef nonnull readnone align 8 dereferenceable(460) %0, i32 noundef %1, ptr nocapture noundef readonly %2) local_unnamed_addr #0 align 2 {
  %or.cond.i = icmp slt i32 %1, 1
  br i1 %or.cond.i, label %_ZN12JvmtiEnvBase11jvmtiMallocEl.exit.thread, label %_ZN12JvmtiEnvBase11jvmtiMallocEl.exit

_ZN12JvmtiEnvBase11jvmtiMallocEl.exit:            ; preds = %3
  %4 = zext nneg i32 %1 to i64
  %5 = shl nuw nsw i64 %4, 3
  %6 = tail call noundef ptr @_ZN2os6mallocEm8MEMFLAGS(i64 noundef %5, i8 noundef zeroext 9) #18
  %7 = icmp eq ptr %6, null
  br i1 %7, label %_ZN12JvmtiEnvBase11jvmtiMallocEl.exit.thread, label %.lr.ph

.lr.ph:                                           ; preds = %_ZN12JvmtiEnvBase11jvmtiMallocEl.exit, %_ZN12JvmtiEnvBase13jni_referenceE6Handle.exit
  %indvars.iv = phi i64 [ %indvars.iv.next, %_ZN12JvmtiEnvBase13jni_referenceE6Handle.exit ], [ 0, %_ZN12JvmtiEnvBase11jvmtiMallocEl.exit ]
  %8 = getelementptr inbounds %class.Handle, ptr %2, i64 %indvars.iv
  %.sroa.0.0.copyload = load ptr, ptr %8, align 8
  %9 = icmp eq ptr %.sroa.0.0.copyload, null
  br i1 %9, label %_ZN12JvmtiEnvBase13jni_referenceE6Handle.exit, label %10

10:                                               ; preds = %.lr.ph
  %11 = load ptr, ptr %.sroa.0.0.copyload, align 8
  br label %_ZN12JvmtiEnvBase13jni_referenceE6Handle.exit

_ZN12JvmtiEnvBase13jni_referenceE6Handle.exit:    ; preds = %.lr.ph, %10
  %12 = phi ptr [ %11, %10 ], [ null, %.lr.ph ]
  %13 = tail call noundef ptr @_ZN10JNIHandles10make_localEP7oopDesc(ptr noundef %12) #18
  %14 = getelementptr inbounds ptr, ptr %6, i64 %indvars.iv
  store ptr %13, ptr %14, align 8
  %indvars.iv.next = add nuw nsw i64 %indvars.iv, 1
  %exitcond.not = icmp eq i64 %indvars.iv.next, %4
  br i1 %exitcond.not, label %_ZN12JvmtiEnvBase11jvmtiMallocEl.exit.thread, label %.lr.ph, !llvm.loop !20

_ZN12JvmtiEnvBase11jvmtiMallocEl.exit.thread:     ; preds = %_ZN12JvmtiEnvBase13jni_referenceE6Handle.exit, %_ZN12JvmtiEnvBase11jvmtiMallocEl.exit, %3
  %.0 = phi ptr [ null, %3 ], [ null, %_ZN12JvmtiEnvBase11jvmtiMallocEl.exit ], [ %6, %_ZN12JvmtiEnvBase13jni_referenceE6Handle.exit ]
  ret ptr %.0
}